; Function Attrs: nounwind uwtable
define dso_local void @standard_ExecutorEnd(ptr noundef captures(none) %0) local_unnamed_addr #0 {
  %2 = getelementptr inbounds nuw i8, ptr %0, i64 80
  %3 = load ptr, ptr %2, align 8
  %4 = getelementptr inbounds nuw i8, ptr %3, i64 284
  %5 = load i32, ptr %4, align 4
  %6 = icmp sgt i32 %5, 0
  br i1 %6, label %7, label %12

7:                                                ; preds = %1
  %8 = zext nneg i32 %5 to i64
  %9 = getelementptr inbounds nuw i8, ptr %3, i64 288
  %10 = load i32, ptr %9, align 8
  %11 = sext i32 %10 to i64
  tail call void @pgstat_update_parallel_workers_stats(i64 noundef %8, i64 noundef %11) #9
  br label %12

12:                                               ; preds = %7, %1
  %13 = getelementptr inbounds nuw i8, ptr %3, i64 192
  %14 = load ptr, ptr %13, align 8
  %15 = load ptr, ptr @CurrentMemoryContext, align 8
  store ptr %14, ptr @CurrentMemoryContext, align 8
  %16 = getelementptr inbounds nuw i8, ptr %0, i64 88
  %17 = load ptr, ptr %16, align 8
  tail call void @ExecEndNode(ptr noundef %17) #9
  %18 = getelementptr inbounds nuw i8, ptr %3, i64 248
  %19 = load ptr, ptr %18, align 8
  %20 = getelementptr inbounds nuw i8, ptr %19, i64 4
  %.not.i = icmp eq ptr %19, null
  br i1 %.not.i, label %._crit_edge.i, label %.lr.ph.i

.lr.ph.i:                                         ; preds = %12
  %21 = getelementptr inbounds nuw i8, ptr %19, i64 16
  %22 = load i32, ptr %20, align 4
  %23 = icmp sgt i32 %22, 0
  br i1 %23, label %.lr.ph18.i, label %._crit_edge.i

._crit_edge.i:                                    ; preds = %.lr.ph18.i, %.lr.ph.i, %12
  %24 = getelementptr inbounds nuw i8, ptr %3, i64 200
  %25 = load ptr, ptr %24, align 8
  tail call void @ExecResetTupleTable(ptr noundef %25, i1 noundef zeroext false) #9
  tail call void @ExecCloseResultRelations(ptr noundef readonly %3)
  %26 = getelementptr inbounds nuw i8, ptr %3, i64 32
  %27 = load i32, ptr %26, align 8
  %.not8.i.i = icmp eq i32 %27, 0
  br i1 %.not8.i.i, label %ExecEndPlan.exit, label %.lr.ph.i.i

.lr.ph.i.i:                                       ; preds = %._crit_edge.i
  %28 = getelementptr inbounds nuw i8, ptr %3, i64 40
  br label %29

29:                                               ; preds = %36, %.lr.ph.i.i
  %30 = phi i32 [ %27, %.lr.ph.i.i ], [ %37, %36 ]
  %.07.i.i = phi i32 [ 0, %.lr.ph.i.i ], [ %38, %36 ]
  %31 = load ptr, ptr %28, align 8
  %32 = sext i32 %.07.i.i to i64
  %33 = getelementptr inbounds ptr, ptr %31, i64 %32
  %34 = load ptr, ptr %33, align 8
  %.not.i.i = icmp eq ptr %34, null
  br i1 %.not.i.i, label %36, label %35

35:                                               ; preds = %29
  tail call void @table_close(ptr noundef nonnull %34, i32 noundef 0) #9
  %.pre.i.i = load i32, ptr %26, align 8
  br label %36

36:                                               ; preds = %35, %29
  %37 = phi i32 [ %30, %29 ], [ %.pre.i.i, %35 ]
  %38 = add nuw i32 %.07.i.i, 1
  %39 = icmp ult i32 %38, %37
  br i1 %39, label %29, label %ExecEndPlan.exit, !llvm.loop !6

.lr.ph18.i:                                       ; preds = %.lr.ph.i, %.lr.ph18.i
  %indvars.iv.i = phi i64 [ %indvars.iv.next.i, %.lr.ph18.i ], [ 0, %.lr.ph.i ]
  %40 = load ptr, ptr %21, align 8
  %41 = getelementptr inbounds nuw %union.ListCell, ptr %40, i64 %indvars.iv.i
  %42 = load ptr, ptr %41, align 8
  tail call void @ExecEndNode(ptr noundef %42) #9
  %indvars.iv.next.i = add nuw nsw i64 %indvars.iv.i, 1
  %43 = load i32, ptr %20, align 4
  %44 = sext i32 %43 to i64
  %45 = icmp slt i64 %indvars.iv.next.i, %44
  br i1 %45, label %.lr.ph18.i, label %._crit_edge.i

ExecEndPlan.exit:                                 ; preds = %36, %._crit_edge.i
  %46 = getelementptr inbounds nuw i8, ptr %3, i64 8
  %47 = load ptr, ptr %46, align 8
  tail call void @UnregisterSnapshot(ptr noundef %47) #9
  %48 = getelementptr inbounds nuw i8, ptr %3, i64 16
  %49 = load ptr, ptr %48, align 8
  tail call void @UnregisterSnapshot(ptr noundef %49) #9
  store ptr %15, ptr @CurrentMemoryContext, align 8
  tail call void @FreeExecutorState(ptr noundef nonnull %3) #9
  %50 = getelementptr inbounds nuw i8, ptr %0, i64 72
  %51 = getelementptr inbounds nuw i8, ptr %0, i64 104
  store ptr null, ptr %51, align 8
  tail call void @llvm.memset.p0.i64(ptr noundef nonnull align 8 dereferenceable(24) %50, i8 0, i64 24, i1 false)
  ret void
}